target datalayout = "e-m:e-p270:32:32-p271:32:32-p272:64:64-i64:64-i128:128-f80:128-n8:16:32:64-S128"
target triple = "x86_64-pc-linux-gnu"

%struct.rb_data_type_struct = type { ptr, %struct.anon, ptr, ptr, i64 }
%struct.anon = type { ptr, ptr, ptr, ptr, [1 x ptr] }
%struct.pkcs7_st = type { ptr, i64, i32, i32, ptr, %union.anon, %struct.PKCS7_CTX_st }
%union.anon = type { ptr }
%struct.PKCS7_CTX_st = type { ptr, ptr }

@ossl_pkcs7_type = internal constant %struct.rb_data_type_struct { ptr @.str.53, %struct.anon { ptr null, ptr @ossl_pkcs7_free, ptr null, ptr null, [1 x ptr] zeroinitializer }, ptr null, ptr null, i64 33 }, align 8
@ePKCS7Error = internal global i64 0, align 8
@rb_eRuntimeError = external global i64, align 8
@.str.1 = private unnamed_addr constant [26 x i8] c"PKCS7 wasn't initialized.\00", align 1
@.str.56 = private unnamed_addr constant [6 x i8] c"@data\00", align 1

; Function Attrs: nounwind sspstrong uwtable
define internal i64 @ossl_pkcs7_add_data(i64 noundef %0, i64 noundef %1) #0 {
  %3 = alloca i64, align 8
  %4 = alloca i64, align 8
  %5 = alloca ptr, align 8
  %6 = alloca ptr, align 8
  %7 = alloca ptr, align 8
  %8 = alloca [4096 x i8], align 16
  %9 = alloca i32, align 4
  store i64 %0, ptr %3, align 8, !tbaa !11
  store i64 %1, ptr %4, align 8, !tbaa !11
  call void @llvm.lifetime.start.p0(i64 8, ptr %5) #16
  call void @llvm.lifetime.start.p0(i64 8, ptr %6) #16
  call void @llvm.lifetime.start.p0(i64 8, ptr %7) #16
  call void @llvm.lifetime.start.p0(i64 4096, ptr %8) #16
  call void @llvm.lifetime.start.p0(i64 4, ptr %9) #16
  br label %10

10:                                               ; preds = %2
  %11 = load i64, ptr %3, align 8, !tbaa !11
  %12 = call ptr @rb_check_typeddata(i64 noundef %11, ptr noundef @ossl_pkcs7_type)
  store ptr %12, ptr %5, align 8, !tbaa !6
  %13 = load ptr, ptr %5, align 8, !tbaa !6
  %14 = icmp ne ptr %13, null
  br i1 %14, label %17, label %15

15:                                               ; preds = %10
  %16 = load i64, ptr @rb_eRuntimeError, align 8, !tbaa !11
  call void (i64, ptr, ...) @ossl_raise(i64 noundef %16, ptr noundef @.str.1) #17
  unreachable

17:                                               ; preds = %10
  br label %18

18:                                               ; preds = %17
  br label %19

19:                                               ; preds = %18
  %20 = load ptr, ptr %5, align 8, !tbaa !6
  %21 = getelementptr inbounds nuw %struct.pkcs7_st, ptr %20, i32 0, i32 4
  %22 = load ptr, ptr %21, align 8, !tbaa !24
  %23 = call i32 @OBJ_obj2nid(ptr noundef %22)
  %24 = icmp eq i32 %23, 22
  br i1 %24, label %25, label %32

25:                                               ; preds = %19
  %26 = load ptr, ptr %5, align 8, !tbaa !6
  %27 = call i32 @PKCS7_content_new(ptr noundef %26, i32 noundef 21)
  %28 = icmp ne i32 %27, 0
  br i1 %28, label %31, label %29

29:                                               ; preds = %25
  %30 = load i64, ptr @ePKCS7Error, align 8, !tbaa !11
  call void (i64, ptr, ...) @ossl_raise(i64 noundef %30, ptr noundef null) #17
  unreachable

31:                                               ; preds = %25
  br label %32

32:                                               ; preds = %31, %19
  %33 = call ptr @ossl_obj2bio(ptr noundef %4)
  store ptr %33, ptr %7, align 8, !tbaa !17
  %34 = load ptr, ptr %5, align 8, !tbaa !6
  %35 = call ptr @PKCS7_dataInit(ptr noundef %34, ptr noundef null)
  store ptr %35, ptr %6, align 8, !tbaa !17
  %36 = icmp ne ptr %35, null
  br i1 %36, label %38, label %37

37:                                               ; preds = %32
  br label %63

38:                                               ; preds = %32
  br label %39

39:                                               ; preds = %53, %38
  %40 = load ptr, ptr %7, align 8, !tbaa !17
  %41 = getelementptr inbounds [4096 x i8], ptr %8, i64 0, i64 0
  %42 = call i32 @BIO_read(ptr noundef %40, ptr noundef %41, i32 noundef 4096)
  store i32 %42, ptr %9, align 4, !tbaa !20
  %43 = icmp sle i32 %42, 0
  br i1 %43, label %44, label %45

44:                                               ; preds = %39
  br label %54

45:                                               ; preds = %39
  %46 = load ptr, ptr %6, align 8, !tbaa !17
  %47 = getelementptr inbounds [4096 x i8], ptr %8, i64 0, i64 0
  %48 = load i32, ptr %9, align 4, !tbaa !20
  %49 = call i32 @BIO_write(ptr noundef %46, ptr noundef %47, i32 noundef %48)
  %50 = load i32, ptr %9, align 4, !tbaa !20
  %51 = icmp ne i32 %49, %50
  br i1 %51, label %52, label %53

52:                                               ; preds = %45
  br label %63

53:                                               ; preds = %45
  br label %39

54:                                               ; preds = %44
  %55 = load ptr, ptr %5, align 8, !tbaa !6
  %56 = load ptr, ptr %6, align 8, !tbaa !17
  %57 = call i32 @PKCS7_dataFinal(ptr noundef %55, ptr noundef %56)
  %58 = icmp ne i32 %57, 0
  br i1 %58, label %60, label %59

59:                                               ; preds = %54
  br label %63

60:                                               ; preds = %54
  %61 = load i64, ptr %3, align 8, !tbaa !11
  %62 = call i64 @rb_iv_set(i64 noundef %61, ptr noundef @.str.56, i64 noundef 4)
  br label %63

63:                                               ; preds = %60, %59, %52, %37
  %64 = load ptr, ptr %6, align 8, !tbaa !17
  call void @BIO_free_all(ptr noundef %64)
  %65 = load ptr, ptr %7, align 8, !tbaa !17
  %66 = call i32 @BIO_free(ptr noundef %65)
  %67 = call i64 @ERR_peek_error()
  %68 = icmp ne i64 %67, 0
  br i1 %68, label %69, label %71

69:                                               ; preds = %63
  %70 = load i64, ptr @ePKCS7Error, align 8, !tbaa !11
  call void (i64, ptr, ...) @ossl_raise(i64 noundef %70, ptr noundef null) #17
  unreachable

71:                                               ; preds = %63
  %72 = load i64, ptr %4, align 8, !tbaa !11
  call void @llvm.lifetime.end.p0(i64 4, ptr %9) #16
  call void @llvm.lifetime.end.p0(i64 4096, ptr %8) #16
  call void @llvm.lifetime.end.p0(i64 8, ptr %7) #16
  call void @llvm.lifetime.end.p0(i64 8, ptr %6) #16
  call void @llvm.lifetime.end.p0(i64 8, ptr %5) #16
  ret i64 %72
}