; Function Attrs: nounwind sspstrong uwtable
define internal i64 @ossl_pkcs7_add_data(i64 noundef %0, i64 noundef %1) #0 {
  %3 = alloca i64, align 8
  %4 = alloca [4096 x i8], align 16
  store i64 %1, ptr %3, align 8, !tbaa !6
  call void @llvm.lifetime.start.p0(i64 4096, ptr nonnull %4) #5
  %5 = tail call ptr @rb_check_typeddata(i64 noundef %0, ptr noundef nonnull @ossl_pkcs7_type) #5
  %.not = icmp eq ptr %5, null
  br i1 %.not, label %6, label %8

6:                                                ; preds = %2
  %7 = load i64, ptr @rb_eRuntimeError, align 8, !tbaa !6
  tail call void (i64, ptr, ...) @ossl_raise(i64 noundef %7, ptr noundef nonnull @.str.1) #6
  unreachable

8:                                                ; preds = %2
  %9 = getelementptr inbounds nuw i8, ptr %5, i64 24
  %10 = load ptr, ptr %9, align 8, !tbaa !22
  %11 = tail call i32 @OBJ_obj2nid(ptr noundef %10) #5
  %12 = icmp eq i32 %11, 22
  br i1 %12, label %13, label %17

13:                                               ; preds = %8
  %14 = tail call i32 @PKCS7_content_new(ptr noundef nonnull %5, i32 noundef 21) #5
  %.not14 = icmp eq i32 %14, 0
  br i1 %.not14, label %15, label %17

15:                                               ; preds = %13
  %16 = load i64, ptr @ePKCS7Error, align 8, !tbaa !6
  tail call void (i64, ptr, ...) @ossl_raise(i64 noundef %16, ptr noundef null) #6
  unreachable

17:                                               ; preds = %13, %8
  %18 = call ptr @ossl_obj2bio(ptr noundef nonnull %3) #5
  %19 = call ptr @PKCS7_dataInit(ptr noundef nonnull %5, ptr noundef null) #5
  %.not15 = icmp eq ptr %19, null
  br i1 %.not15, label %.loopexit, label %.preheader

.preheader:                                       ; preds = %17, %22
  %20 = call i32 @BIO_read(ptr noundef %18, ptr noundef nonnull %4, i32 noundef 4096) #5
  %21 = icmp slt i32 %20, 1
  br i1 %21, label %24, label %22

22:                                               ; preds = %.preheader
  %23 = call i32 @BIO_write(ptr noundef nonnull %19, ptr noundef nonnull %4, i32 noundef %20) #5
  %.not16 = icmp eq i32 %23, %20
  br i1 %.not16, label %.preheader, label %.loopexit

24:                                               ; preds = %.preheader
  %25 = call i32 @PKCS7_dataFinal(ptr noundef nonnull %5, ptr noundef nonnull %19) #5
  %.not17 = icmp eq i32 %25, 0
  br i1 %.not17, label %.loopexit, label %26

26:                                               ; preds = %24
  %27 = call i64 @rb_iv_set(i64 noundef %0, ptr noundef nonnull @.str.56, i64 noundef 4) #5
  br label %.loopexit

.loopexit:                                        ; preds = %22, %24, %17, %26
  call void @BIO_free_all(ptr noundef %19) #5
  %28 = call i32 @BIO_free(ptr noundef %18) #5
  %29 = call i64 @ERR_peek_error() #5
  %.not18 = icmp eq i64 %29, 0
  br i1 %.not18, label %32, label %30

30:                                               ; preds = %.loopexit
  %31 = load i64, ptr @ePKCS7Error, align 8, !tbaa !6
  call void (i64, ptr, ...) @ossl_raise(i64 noundef %31, ptr noundef null) #6
  unreachable

32:                                               ; preds = %.loopexit
  %33 = load i64, ptr %3, align 8, !tbaa !6
  call void @llvm.lifetime.end.p0(i64 4096, ptr nonnull %4) #5
  ret i64 %33
}